; ModuleID = '20/162.c'
source_filename = "20/162.c"
target datalayout = "e-m:e-p270:32:32-p271:32:32-p272:64:64-i64:64-f80:128-n8:16:32:64-S128"
target triple = "x86_64-pc-linux-gnu"

@.str = private unnamed_addr constant [6 x i8] c"%s %s\00", align 1
@.str.1 = private unnamed_addr constant [4 x i8] c"%s\0A\00", align 1

; Function Attrs: noinline nounwind uwtable
define dso_local void @main() #0 {
  %1 = alloca [15 x i8], align 1
  %2 = alloca [4 x i8], align 1
  %3 = alloca i8, align 1
  %4 = alloca i32, align 4
  %5 = alloca i32, align 4
  %6 = alloca i32, align 4
  br label %7

7:                                                ; preds = %60, %0
  %8 = getelementptr inbounds [15 x i8], [15 x i8]* %1, i64 0, i64 0
  %9 = getelementptr inbounds [4 x i8], [4 x i8]* %2, i64 0, i64 0
  %10 = call i32 (i8*, ...) @__isoc99_scanf(i8* getelementptr inbounds ([6 x i8], [6 x i8]* @.str, i64 0, i64 0), i8* %8, i8* %9)
  %11 = icmp ne i32 %10, -1
  br i1 %11, label %12, label %85

12:                                               ; preds = %7
  store i32 0, i32* %4, align 4
  %13 = getelementptr inbounds [15 x i8], [15 x i8]* %1, i64 0, i64 0
  %14 = load i8, i8* %13, align 1
  store i8 %14, i8* %3, align 1
  store i32 0, i32* %6, align 4
  %15 = getelementptr inbounds [15 x i8], [15 x i8]* %1, i64 0, i64 0
  %16 = call i64 @strlen(i8* %15) #3
  %17 = trunc i64 %16 to i32
  store i32 %17, i32* %6, align 4
  store i32 1, i32* %5, align 4
  br label %18

18:                                               ; preds = %38, %12
  %19 = load i32, i32* %5, align 4
  %20 = load i32, i32* %6, align 4
  %21 = icmp slt i32 %19, %20
  br i1 %21, label %22, label %41

22:                                               ; preds = %18
  %23 = load i32, i32* %5, align 4
  %24 = sext i32 %23 to i64
  %25 = getelementptr inbounds [15 x i8], [15 x i8]* %1, i64 0, i64 %24
  %26 = load i8, i8* %25, align 1
  %27 = sext i8 %26 to i32
  %28 = load i8, i8* %3, align 1
  %29 = sext i8 %28 to i32
  %30 = icmp sgt i32 %27, %29
  br i1 %30, label %31, label %37

31:                                               ; preds = %22
  %32 = load i32, i32* %5, align 4
  store i32 %32, i32* %4, align 4
  %33 = load i32, i32* %5, align 4
  %34 = sext i32 %33 to i64
  %35 = getelementptr inbounds [15 x i8], [15 x i8]* %1, i64 0, i64 %34
  %36 = load i8, i8* %35, align 1
  store i8 %36, i8* %3, align 1
  br label %37

37:                                               ; preds = %31, %22
  br label %38

38:                                               ; preds = %37
  %39 = load i32, i32* %5, align 4
  %40 = add nsw i32 %39, 1
  store i32 %40, i32* %5, align 4
  br label %18

41:                                               ; preds = %18
  %42 = load i32, i32* %6, align 4
  %43 = sub nsw i32 %42, 1
  store i32 %43, i32* %5, align 4
  br label %44

44:                                               ; preds = %57, %41
  %45 = load i32, i32* %5, align 4
  %46 = load i32, i32* %4, align 4
  %47 = icmp sgt i32 %45, %46
  br i1 %47, label %48, label %60

48:                                               ; preds = %44
  %49 = load i32, i32* %5, align 4
  %50 = sext i32 %49 to i64
  %51 = getelementptr inbounds [15 x i8], [15 x i8]* %1, i64 0, i64 %50
  %52 = load i8, i8* %51, align 1
  %53 = load i32, i32* %5, align 4
  %54 = add nsw i32 %53, 3
  %55 = sext i32 %54 to i64
  %56 = getelementptr inbounds [15 x i8], [15 x i8]* %1, i64 0, i64 %55
  store i8 %52, i8* %56, align 1
  br label %57

57:                                               ; preds = %48
  %58 = load i32, i32* %5, align 4
  %59 = add nsw i32 %58, -1
  store i32 %59, i32* %5, align 4
  br label %44

60:                                               ; preds = %44
  %61 = getelementptr inbounds [4 x i8], [4 x i8]* %2, i64 0, i64 0
  %62 = load i8, i8* %61, align 1
  %63 = load i32, i32* %4, align 4
  %64 = add nsw i32 %63, 1
  %65 = sext i32 %64 to i64
  %66 = getelementptr inbounds [15 x i8], [15 x i8]* %1, i64 0, i64 %65
  store i8 %62, i8* %66, align 1
  %67 = getelementptr inbounds [4 x i8], [4 x i8]* %2, i64 0, i64 1
  %68 = load i8, i8* %67, align 1
  %69 = load i32, i32* %4, align 4
  %70 = add nsw i32 %69, 2
  %71 = sext i32 %70 to i64
  %72 = getelementptr inbounds [15 x i8], [15 x i8]* %1, i64 0, i64 %71
  store i8 %68, i8* %72, align 1
  %73 = getelementptr inbounds [4 x i8], [4 x i8]* %2, i64 0, i64 2
  %74 = load i8, i8* %73, align 1
  %75 = load i32, i32* %4, align 4
  %76 = add nsw i32 %75, 3
  %77 = sext i32 %76 to i64
  %78 = getelementptr inbounds [15 x i8], [15 x i8]* %1, i64 0, i64 %77
  store i8 %74, i8* %78, align 1
  %79 = load i32, i32* %6, align 4
  %80 = add nsw i32 %79, 3
  %81 = sext i32 %80 to i64
  %82 = getelementptr inbounds [15 x i8], [15 x i8]* %1, i64 0, i64 %81
  store i8 0, i8* %82, align 1
  %83 = getelementptr inbounds [15 x i8], [15 x i8]* %1, i64 0, i64 0
  %84 = call i32 (i8*, ...) @printf(i8* getelementptr inbounds ([4 x i8], [4 x i8]* @.str.1, i64 0, i64 0), i8* %83)
  br label %7

85:                                               ; preds = %7
  ret void
}

declare dso_local i32 @__isoc99_scanf(i8*, ...) #1

; Function Attrs: nounwind readonly
declare dso_local i64 @strlen(i8*) #2

declare dso_local i32 @printf(i8*, ...) #1


!llvm.module.flags = !{!0}
!llvm.ident = !{!1}

!0 = !{i32 1, !"wchar_size", i32 4}
!1 = !{!"clang version 10.0.0-4ubuntu1 "}
